target datalayout = "e-m:e-p270:32:32-p271:32:32-p272:64:64-i64:64-i128:128-f80:128-n8:16:32:64-S128"
target triple = "x86_64-pc-linux-gnu"

%struct.strbuf = type { i64, i64, ptr }
%struct.diff_options = type { ptr, ptr, i32, i32, ptr, i32, ptr, i64, i64, ptr, ptr, ptr, ptr, %struct.diff_flags, i32, i32, i32, i32, i32, i32, i32, i32, i32, i32, i32, i32, i32, i32, i32, i32, i32, i32, i32, i32, i32, i32, ptr, i32, ptr, i32, i32, ptr, i64, i64, i32, i32, i32, i32, ptr, i32, i32, ptr, i32, i32, ptr, ptr, i32, [3 x i8], %struct.pathspec, ptr, ptr, ptr, ptr, ptr, ptr, ptr, ptr, i32, ptr, i32, i32, ptr, ptr, i32 }
%struct.diff_flags = type { i32, i32, i32, i32, i32, i32, i32, i32, i32, i32, i32, i32, i32, i32, i32, i32, i32, i32, i32, i32, i32, i32, i32, i32, i32, i32, i32, i32, i32, i32, i32, i32, i32, i32, i32 }
%struct.pathspec = type { i32, i8, i32, i32, ptr }
%struct.git_graph = type { ptr, ptr, i32, i32, i32, i32, i32, i32, i32, i32, i32, i32, i32, i32, i32, i32, ptr, ptr, ptr, ptr, i16, %struct.strbuf }

@strbuf_slopbuf = external global [0 x i8], align 1
@.str.6 = private unnamed_addr constant [11 x i8] c"./strbuf.h\00", align 1
@.str.7 = private unnamed_addr constant [30 x i8] c"strbuf_setlen() beyond buffer\00", align 1

; Function Attrs: inlinehint nounwind uwtable
define internal void @strbuf_addstr(ptr noundef %0, ptr noundef %1) #4 {
  %3 = alloca ptr, align 8
  %4 = alloca ptr, align 8
  store ptr %0, ptr %3, align 8, !tbaa !123
  store ptr %1, ptr %4, align 8, !tbaa !74
  %5 = load ptr, ptr %3, align 8, !tbaa !123
  %6 = load ptr, ptr %4, align 8, !tbaa !74
  %7 = load ptr, ptr %4, align 8, !tbaa !74
  %8 = call i64 @strlen(ptr noundef %7) #9
  call void @strbuf_add(ptr noundef %5, ptr noundef %6, i64 noundef %8)
  ret void
}

; Function Attrs: inlinehint nounwind uwtable
define internal void @strbuf_setlen(ptr noundef %0, i64 noundef %1) #4 {
  %3 = alloca ptr, align 8
  %4 = alloca i64, align 8
  store ptr %0, ptr %3, align 8, !tbaa !123
  store i64 %1, ptr %4, align 8, !tbaa !103
  %5 = load i64, ptr %4, align 8, !tbaa !103
  %6 = load ptr, ptr %3, align 8, !tbaa !123
  %7 = getelementptr inbounds nuw %struct.strbuf, ptr %6, i32 0, i32 0
  %8 = load i64, ptr %7, align 8, !tbaa !147
  %9 = icmp ne i64 %8, 0
  br i1 %9, label %10, label %15

10:                                               ; preds = %2
  %11 = load ptr, ptr %3, align 8, !tbaa !123
  %12 = getelementptr inbounds nuw %struct.strbuf, ptr %11, i32 0, i32 0
  %13 = load i64, ptr %12, align 8, !tbaa !147
  %14 = sub i64 %13, 1
  br label %16

15:                                               ; preds = %2
  br label %16

16:                                               ; preds = %15, %10
  %17 = phi i64 [ %14, %10 ], [ 0, %15 ]
  %18 = icmp ugt i64 %5, %17
  br i1 %18, label %19, label %20

19:                                               ; preds = %16
  call void (ptr, i32, ptr, ...) @BUG_fl(ptr noundef @.str.6, i32 noundef 167, ptr noundef @.str.7) #10
  unreachable

20:                                               ; preds = %16
  %21 = load i64, ptr %4, align 8, !tbaa !103
  %22 = load ptr, ptr %3, align 8, !tbaa !123
  %23 = getelementptr inbounds nuw %struct.strbuf, ptr %22, i32 0, i32 1
  store i64 %21, ptr %23, align 8, !tbaa !143
  %24 = load ptr, ptr %3, align 8, !tbaa !123
  %25 = getelementptr inbounds nuw %struct.strbuf, ptr %24, i32 0, i32 2
  %26 = load ptr, ptr %25, align 8, !tbaa !142
  %27 = icmp ne ptr %26, @strbuf_slopbuf
  br i1 %27, label %28, label %34

28:                                               ; preds = %20
  %29 = load ptr, ptr %3, align 8, !tbaa !123
  %30 = getelementptr inbounds nuw %struct.strbuf, ptr %29, i32 0, i32 2
  %31 = load ptr, ptr %30, align 8, !tbaa !142
  %32 = load i64, ptr %4, align 8, !tbaa !103
  %33 = getelementptr inbounds nuw i8, ptr %31, i64 %32
  store i8 0, ptr %33, align 1, !tbaa !134
  br label %35

34:                                               ; preds = %20
  br label %35

35:                                               ; preds = %34, %28
  ret void
}

; Function Attrs: nounwind uwtable
define internal ptr @diff_output_prefix_callback(ptr noundef %0, ptr noundef %1) #0 {
  %3 = alloca ptr, align 8
  %4 = alloca ptr, align 8
  %5 = alloca ptr, align 8
  %6 = alloca ptr, align 8
  %7 = alloca i32, align 4
  store ptr %0, ptr %4, align 8, !tbaa !11
  store ptr %1, ptr %5, align 8, !tbaa !27
  call void @llvm.lifetime.start.p0(i64 8, ptr %6) #8
  %8 = load ptr, ptr %5, align 8, !tbaa !27
  store ptr %8, ptr %6, align 8, !tbaa !28
  %9 = load ptr, ptr %6, align 8, !tbaa !28
  %10 = icmp ne ptr %9, null
  br i1 %10, label %15, label %11

11:                                               ; preds = %2
  %12 = load ptr, ptr %4, align 8, !tbaa !11
  %13 = getelementptr inbounds nuw %struct.diff_options, ptr %12, i32 0, i32 12
  %14 = load ptr, ptr %13, align 8, !tbaa !30
  store ptr %14, ptr %3, align 8
  store i32 1, ptr %7, align 4
  br label %36

15:                                               ; preds = %2
  %16 = load ptr, ptr %6, align 8, !tbaa !28
  %17 = getelementptr inbounds nuw %struct.git_graph, ptr %16, i32 0, i32 21
  call void @strbuf_setlen(ptr noundef %17, i64 noundef 0)
  %18 = load ptr, ptr %4, align 8, !tbaa !11
  %19 = getelementptr inbounds nuw %struct.diff_options, ptr %18, i32 0, i32 12
  %20 = load ptr, ptr %19, align 8, !tbaa !30
  %21 = icmp ne ptr %20, null
  br i1 %21, label %22, label %28

22:                                               ; preds = %15
  %23 = load ptr, ptr %6, align 8, !tbaa !28
  %24 = getelementptr inbounds nuw %struct.git_graph, ptr %23, i32 0, i32 21
  %25 = load ptr, ptr %4, align 8, !tbaa !11
  %26 = getelementptr inbounds nuw %struct.diff_options, ptr %25, i32 0, i32 12
  %27 = load ptr, ptr %26, align 8, !tbaa !30
  call void @strbuf_addstr(ptr noundef %24, ptr noundef %27)
  br label %28

28:                                               ; preds = %22, %15
  %29 = load ptr, ptr %6, align 8, !tbaa !28
  %30 = load ptr, ptr %6, align 8, !tbaa !28
  %31 = getelementptr inbounds nuw %struct.git_graph, ptr %30, i32 0, i32 21
  call void @graph_padding_line(ptr noundef %29, ptr noundef %31)
  %32 = load ptr, ptr %6, align 8, !tbaa !28
  %33 = getelementptr inbounds nuw %struct.git_graph, ptr %32, i32 0, i32 21
  %34 = getelementptr inbounds nuw %struct.strbuf, ptr %33, i32 0, i32 2
  %35 = load ptr, ptr %34, align 8, !tbaa !31
  store ptr %35, ptr %3, align 8
  store i32 1, ptr %7, align 4
  br label %36

36:                                               ; preds = %28, %11
  call void @llvm.lifetime.end.p0(i64 8, ptr %6) #8
  %37 = load ptr, ptr %3, align 8
  ret ptr %37
}