; Function Attrs: nounwind uwtable
define internal ptr @diff_output_prefix_callback(ptr noundef readonly captures(none) %0, ptr noundef %1) #2 {
  %.not = icmp eq ptr %1, null
  br i1 %.not, label %3, label %5

3:                                                ; preds = %2
  %4 = getelementptr inbounds nuw i8, ptr %0, i64 88
  br label %16

5:                                                ; preds = %2
  %6 = getelementptr inbounds nuw i8, ptr %1, i64 112
  %7 = getelementptr inbounds nuw i8, ptr %1, i64 120
  store i64 0, ptr %7, align 8, !tbaa !27
  %8 = getelementptr inbounds nuw i8, ptr %1, i64 128
  %9 = load ptr, ptr %8, align 8, !tbaa !29
  %.not9.i = icmp eq ptr %9, @strbuf_slopbuf
  br i1 %.not9.i, label %strbuf_setlen.exit, label %10

10:                                               ; preds = %5
  store i8 0, ptr %9, align 1, !tbaa !30
  br label %strbuf_setlen.exit

strbuf_setlen.exit:                               ; preds = %5, %10
  %11 = getelementptr inbounds nuw i8, ptr %0, i64 88
  %12 = load ptr, ptr %11, align 8, !tbaa !31
  %.not13 = icmp eq ptr %12, null
  br i1 %.not13, label %15, label %13

13:                                               ; preds = %strbuf_setlen.exit
  %14 = tail call i64 @strlen(ptr noundef nonnull dereferenceable(1) %12) #14
  tail call void @strbuf_add(ptr noundef nonnull %6, ptr noundef nonnull %12, i64 noundef %14) #15
  br label %15

15:                                               ; preds = %13, %strbuf_setlen.exit
  tail call fastcc void @graph_padding_line(ptr noundef %1, ptr noundef %6)
  br label %16

16:                                               ; preds = %15, %3
  %.0.in = phi ptr [ %8, %15 ], [ %4, %3 ]
  %.0 = load ptr, ptr %.0.in, align 8, !tbaa !32
  ret ptr %.0
}